
countdown.exe:     file format elf32-littlearm


Disassembly of section .ostext:

00000000 <_start>:
   0:	ea000022 	b	90 <do_reset>
   4:	e1a00000 	nop			; (mov r0, r0)
   8:	ea000008 	b	30 <do_swi>
   c:	e1a00000 	nop			; (mov r0, r0)
  10:	e1a00000 	nop			; (mov r0, r0)
  14:	e1a00000 	nop			; (mov r0, r0)
  18:	ea000017 	b	7c <do_irq>
	...

00000030 <do_swi>:
  30:	e92d5fff 	push	{r0, r1, r2, r3, r4, r5, r6, r7, r8, r9, sl, fp, ip, lr}
  34:	e10f8000 	mrs	r8, CPSR
  38:	e3c88080 	bic	r8, r8, #128	; 0x80
  3c:	e129f008 	msr	CPSR_fc, r8
  40:	e51e8004 	ldr	r8, [lr, #-4]
  44:	e3c884ff 	bic	r8, r8, #-16777216	; 0xff000000
  48:	e3580000 	cmp	r8, #0
  4c:	0a000002 	beq	5c <do_putc>
  50:	e358006a 	cmp	r8, #106	; 0x6a
  54:	0a000003 	beq	68 <do_getline>
  58:	ea000005 	b	74 <swi_return>

0000005c <do_putc>:
  5c:	e3a01601 	mov	r1, #1048576	; 0x100000
  60:	e5c10000 	strb	r0, [r1]
  64:	ea000002 	b	74 <swi_return>

00000068 <do_getline>:
  68:	e1a00001 	mov	r0, r1
  6c:	e1a01002 	mov	r1, r2
  70:	eb00018e 	bl	6b0 <swi_getline>

00000074 <swi_return>:
  74:	e8bd5fff 	pop	{r0, r1, r2, r3, r4, r5, r6, r7, r8, r9, sl, fp, ip, lr}
  78:	e1b0f00e 	movs	pc, lr

0000007c <do_irq>:
  7c:	e24ee004 	sub	lr, lr, #4
  80:	e92d5fff 	push	{r0, r1, r2, r3, r4, r5, r6, r7, r8, r9, sl, fp, ip, lr}
  84:	eb000127 	bl	528 <kbdinthandler>
  88:	e8bd5fff 	pop	{r0, r1, r2, r3, r4, r5, r6, r7, r8, r9, sl, fp, ip, lr}
  8c:	e1b0f00e 	movs	pc, lr

00000090 <do_reset>:
  90:	e3a020d2 	mov	r2, #210	; 0xd2
  94:	e129f002 	msr	CPSR_fc, r2
  98:	e59fd024 	ldr	sp, [pc, #36]	; c4 <do_reset+0x34>
  9c:	e3a020d3 	mov	r2, #211	; 0xd3
  a0:	e129f002 	msr	CPSR_fc, r2
  a4:	e59fd01c 	ldr	sp, [pc, #28]	; c8 <do_reset+0x38>
  a8:	e3a020df 	mov	r2, #223	; 0xdf
  ac:	e129f002 	msr	CPSR_fc, r2
  b0:	e3a0da07 	mov	sp, #28672	; 0x7000
  b4:	e10f1000 	mrs	r1, CPSR
  b8:	e3c11080 	bic	r1, r1, #128	; 0x80
  bc:	e129f001 	msr	CPSR_fc, r1
  c0:	eb000001 	bl	cc <start>
  c4:	00007ff0 	.word	0x00007ff0
  c8:	000078f0 	.word	0x000078f0

000000cc <start>:
  cc:	e92d4800 	push	{fp, lr}
  d0:	e28db004 	add	fp, sp, #4
  d4:	eb0007c9 	bl	2000 <main>
  d8:	ef000011 	svc	0x00000011
  dc:	e1a00000 	nop			; (mov r0, r0)
  e0:	e24bd004 	sub	sp, fp, #4
  e4:	e8bd4800 	pop	{fp, lr}
  e8:	e12fff1e 	bx	lr

000000ec <putc>:
  ec:	e92d0820 	push	{r5, fp}
  f0:	e28db004 	add	fp, sp, #4
  f4:	e24dd008 	sub	sp, sp, #8
  f8:	e1a03000 	mov	r3, r0
  fc:	e54b3005 	strb	r3, [fp, #-5]
 100:	ef000000 	svc	0x00000000
 104:	e1a00000 	nop			; (mov r0, r0)
 108:	e24bd004 	sub	sp, fp, #4
 10c:	e8bd0820 	pop	{r5, fp}
 110:	e12fff1e 	bx	lr

00000114 <getline>:
 114:	e92d0820 	push	{r5, fp}
 118:	e28db004 	add	fp, sp, #4
 11c:	e24dd008 	sub	sp, sp, #8
 120:	e50b0008 	str	r0, [fp, #-8]
 124:	e50b100c 	str	r1, [fp, #-12]
 128:	e1a02001 	mov	r2, r1
 12c:	e1a01000 	mov	r1, r0
 130:	ef00006a 	svc	0x0000006a
 134:	e1a00000 	nop			; (mov r0, r0)
 138:	e24bd004 	sub	sp, fp, #4
 13c:	e8bd0820 	pop	{r5, fp}
 140:	e12fff1e 	bx	lr

00000144 <puts>:
 144:	e92d4800 	push	{fp, lr}
 148:	e28db004 	add	fp, sp, #4
 14c:	e24dd008 	sub	sp, sp, #8
 150:	e50b0008 	str	r0, [fp, #-8]
 154:	ea000005 	b	170 <puts+0x2c>
 158:	e51b3008 	ldr	r3, [fp, #-8]
 15c:	e2832001 	add	r2, r3, #1
 160:	e50b2008 	str	r2, [fp, #-8]
 164:	e5d33000 	ldrb	r3, [r3]
 168:	e1a00003 	mov	r0, r3
 16c:	ebffffde 	bl	ec <putc>
 170:	e51b3008 	ldr	r3, [fp, #-8]
 174:	e5d33000 	ldrb	r3, [r3]
 178:	e3530000 	cmp	r3, #0
 17c:	1afffff5 	bne	158 <puts+0x14>
 180:	e1a00000 	nop			; (mov r0, r0)
 184:	e24bd004 	sub	sp, fp, #4
 188:	e8bd4800 	pop	{fp, lr}
 18c:	e12fff1e 	bx	lr

00000190 <readint>:
 190:	e92d4800 	push	{fp, lr}
 194:	e28db004 	add	fp, sp, #4
 198:	e24dd038 	sub	sp, sp, #56	; 0x38
 19c:	e24b303c 	sub	r3, fp, #60	; 0x3c
 1a0:	e50b3008 	str	r3, [fp, #-8]
 1a4:	e3a03000 	mov	r3, #0
 1a8:	e50b300c 	str	r3, [fp, #-12]
 1ac:	e3a03001 	mov	r3, #1
 1b0:	e50b3010 	str	r3, [fp, #-16]
 1b4:	e24b303c 	sub	r3, fp, #60	; 0x3c
 1b8:	e3a01028 	mov	r1, #40	; 0x28
 1bc:	e1a00003 	mov	r0, r3
 1c0:	ebffffd3 	bl	114 <getline>
 1c4:	e51b3008 	ldr	r3, [fp, #-8]
 1c8:	e5d33000 	ldrb	r3, [r3]
 1cc:	e353002d 	cmp	r3, #45	; 0x2d
 1d0:	1a000015 	bne	22c <readint+0x9c>
 1d4:	e51b3008 	ldr	r3, [fp, #-8]
 1d8:	e2833001 	add	r3, r3, #1
 1dc:	e50b3008 	str	r3, [fp, #-8]
 1e0:	e3e03000 	mvn	r3, #0
 1e4:	e50b3010 	str	r3, [fp, #-16]
 1e8:	ea00000f 	b	22c <readint+0x9c>
 1ec:	e51b3008 	ldr	r3, [fp, #-8]
 1f0:	e5d33000 	ldrb	r3, [r3]
 1f4:	e54b3011 	strb	r3, [fp, #-17]	; 0xffffffef
 1f8:	e51b200c 	ldr	r2, [fp, #-12]
 1fc:	e1a03002 	mov	r3, r2
 200:	e1a03103 	lsl	r3, r3, #2
 204:	e0833002 	add	r3, r3, r2
 208:	e1a03083 	lsl	r3, r3, #1
 20c:	e1a02003 	mov	r2, r3
 210:	e55b3011 	ldrb	r3, [fp, #-17]	; 0xffffffef
 214:	e2433030 	sub	r3, r3, #48	; 0x30
 218:	e0823003 	add	r3, r2, r3
 21c:	e50b300c 	str	r3, [fp, #-12]
 220:	e51b3008 	ldr	r3, [fp, #-8]
 224:	e2833001 	add	r3, r3, #1
 228:	e50b3008 	str	r3, [fp, #-8]
 22c:	e51b3008 	ldr	r3, [fp, #-8]
 230:	e5d33000 	ldrb	r3, [r3]
 234:	e3530000 	cmp	r3, #0
 238:	0a000003 	beq	24c <readint+0xbc>
 23c:	e51b3008 	ldr	r3, [fp, #-8]
 240:	e5d33000 	ldrb	r3, [r3]
 244:	e353000d 	cmp	r3, #13
 248:	1affffe7 	bne	1ec <readint+0x5c>
 24c:	e51b300c 	ldr	r3, [fp, #-12]
 250:	e51b2010 	ldr	r2, [fp, #-16]
 254:	e0010392 	mul	r1, r2, r3
 258:	e50b100c 	str	r1, [fp, #-12]
 25c:	e51b300c 	ldr	r3, [fp, #-12]
 260:	e1a00003 	mov	r0, r3
 264:	e24bd004 	sub	sp, fp, #4
 268:	e8bd4800 	pop	{fp, lr}
 26c:	e12fff1e 	bx	lr

00000270 <divide>:
 270:	e92d0820 	push	{r5, fp}
 274:	e28db004 	add	fp, sp, #4
 278:	e24dd018 	sub	sp, sp, #24
 27c:	e50b0018 	str	r0, [fp, #-24]	; 0xffffffe8
 280:	e50b101c 	str	r1, [fp, #-28]	; 0xffffffe4
 284:	e3a03000 	mov	r3, #0
 288:	e50b3008 	str	r3, [fp, #-8]
 28c:	e3a03000 	mov	r3, #0
 290:	e50b300c 	str	r3, [fp, #-12]
 294:	e3a0301f 	mov	r3, #31
 298:	e50b3010 	str	r3, [fp, #-16]
 29c:	ea00001b 	b	310 <divide+0xa0>
 2a0:	e51b3008 	ldr	r3, [fp, #-8]
 2a4:	e1a02083 	lsl	r2, r3, #1
 2a8:	e3a01001 	mov	r1, #1
 2ac:	e51b3010 	ldr	r3, [fp, #-16]
 2b0:	e1a01311 	lsl	r1, r1, r3
 2b4:	e51b3018 	ldr	r3, [fp, #-24]	; 0xffffffe8
 2b8:	e0011003 	and	r1, r1, r3
 2bc:	e51b3010 	ldr	r3, [fp, #-16]
 2c0:	e1a03351 	asr	r3, r1, r3
 2c4:	e0823003 	add	r3, r2, r3
 2c8:	e50b3008 	str	r3, [fp, #-8]
 2cc:	e51b300c 	ldr	r3, [fp, #-12]
 2d0:	e1a03083 	lsl	r3, r3, #1
 2d4:	e50b300c 	str	r3, [fp, #-12]
 2d8:	e51b2008 	ldr	r2, [fp, #-8]
 2dc:	e51b301c 	ldr	r3, [fp, #-28]	; 0xffffffe4
 2e0:	e1520003 	cmp	r2, r3
 2e4:	ba000006 	blt	304 <divide+0x94>
 2e8:	e51b2008 	ldr	r2, [fp, #-8]
 2ec:	e51b301c 	ldr	r3, [fp, #-28]	; 0xffffffe4
 2f0:	e0423003 	sub	r3, r2, r3
 2f4:	e50b3008 	str	r3, [fp, #-8]
 2f8:	e51b300c 	ldr	r3, [fp, #-12]
 2fc:	e2833001 	add	r3, r3, #1
 300:	e50b300c 	str	r3, [fp, #-12]
 304:	e51b3010 	ldr	r3, [fp, #-16]
 308:	e2433001 	sub	r3, r3, #1
 30c:	e50b3010 	str	r3, [fp, #-16]
 310:	e51b3010 	ldr	r3, [fp, #-16]
 314:	e3530000 	cmp	r3, #0
 318:	aaffffe0 	bge	2a0 <divide+0x30>
 31c:	e51b300c 	ldr	r3, [fp, #-12]
 320:	e1a00003 	mov	r0, r3
 324:	e24bd004 	sub	sp, fp, #4
 328:	e8bd0820 	pop	{r5, fp}
 32c:	e12fff1e 	bx	lr

00000330 <itoa>:
 330:	e92d4800 	push	{fp, lr}
 334:	e28db004 	add	fp, sp, #4
 338:	e24dd030 	sub	sp, sp, #48	; 0x30
 33c:	e50b0030 	str	r0, [fp, #-48]	; 0xffffffd0
 340:	e50b1034 	str	r1, [fp, #-52]	; 0xffffffcc
 344:	e3a03ea3 	mov	r3, #2608	; 0xa30
 348:	e50b3028 	str	r3, [fp, #-40]	; 0xffffffd8
 34c:	e24b3024 	sub	r3, fp, #36	; 0x24
 350:	e3a02000 	mov	r2, #0
 354:	e5832000 	str	r2, [r3]
 358:	e5832004 	str	r2, [r3, #4]
 35c:	e5832008 	str	r2, [r3, #8]
 360:	e583200c 	str	r2, [r3, #12]
 364:	e24b3028 	sub	r3, fp, #40	; 0x28
 368:	e50b3008 	str	r3, [fp, #-8]
 36c:	e51b3034 	ldr	r3, [fp, #-52]	; 0xffffffcc
 370:	e50b300c 	str	r3, [fp, #-12]
 374:	e51b3030 	ldr	r3, [fp, #-48]	; 0xffffffd0
 378:	e3530000 	cmp	r3, #0
 37c:	aa000007 	bge	3a0 <itoa+0x70>
 380:	e51b300c 	ldr	r3, [fp, #-12]
 384:	e2832001 	add	r2, r3, #1
 388:	e50b200c 	str	r2, [fp, #-12]
 38c:	e3a0202d 	mov	r2, #45	; 0x2d
 390:	e5c32000 	strb	r2, [r3]
 394:	e51b3030 	ldr	r3, [fp, #-48]	; 0xffffffd0
 398:	e2633000 	rsb	r3, r3, #0
 39c:	e50b3030 	str	r3, [fp, #-48]	; 0xffffffd0
 3a0:	e51b3030 	ldr	r3, [fp, #-48]	; 0xffffffd0
 3a4:	e3530000 	cmp	r3, #0
 3a8:	da000036 	ble	488 <itoa+0x158>
 3ac:	ea000016 	b	40c <itoa+0xdc>
 3b0:	e3a0100a 	mov	r1, #10
 3b4:	e51b0030 	ldr	r0, [fp, #-48]	; 0xffffffd0
 3b8:	ebffffac 	bl	270 <divide>
 3bc:	e1a03000 	mov	r3, r0
 3c0:	e50b3010 	str	r3, [fp, #-16]
 3c4:	e51b1030 	ldr	r1, [fp, #-48]	; 0xffffffd0
 3c8:	e51b2010 	ldr	r2, [fp, #-16]
 3cc:	e1a03002 	mov	r3, r2
 3d0:	e1a03103 	lsl	r3, r3, #2
 3d4:	e0833002 	add	r3, r3, r2
 3d8:	e1a03083 	lsl	r3, r3, #1
 3dc:	e0413003 	sub	r3, r1, r3
 3e0:	e50b3014 	str	r3, [fp, #-20]	; 0xffffffec
 3e4:	e51b3014 	ldr	r3, [fp, #-20]	; 0xffffffec
 3e8:	e20320ff 	and	r2, r3, #255	; 0xff
 3ec:	e51b3008 	ldr	r3, [fp, #-8]
 3f0:	e2831001 	add	r1, r3, #1
 3f4:	e50b1008 	str	r1, [fp, #-8]
 3f8:	e2822030 	add	r2, r2, #48	; 0x30
 3fc:	e20220ff 	and	r2, r2, #255	; 0xff
 400:	e5c32000 	strb	r2, [r3]
 404:	e51b3010 	ldr	r3, [fp, #-16]
 408:	e50b3030 	str	r3, [fp, #-48]	; 0xffffffd0
 40c:	e51b3030 	ldr	r3, [fp, #-48]	; 0xffffffd0
 410:	e3530000 	cmp	r3, #0
 414:	caffffe5 	bgt	3b0 <itoa+0x80>
 418:	e51b3008 	ldr	r3, [fp, #-8]
 41c:	e2433001 	sub	r3, r3, #1
 420:	e50b3008 	str	r3, [fp, #-8]
 424:	ea000007 	b	448 <itoa+0x118>
 428:	e51b2008 	ldr	r2, [fp, #-8]
 42c:	e2423001 	sub	r3, r2, #1
 430:	e50b3008 	str	r3, [fp, #-8]
 434:	e51b300c 	ldr	r3, [fp, #-12]
 438:	e2831001 	add	r1, r3, #1
 43c:	e50b100c 	str	r1, [fp, #-12]
 440:	e5d22000 	ldrb	r2, [r2]
 444:	e5c32000 	strb	r2, [r3]
 448:	e24b3028 	sub	r3, fp, #40	; 0x28
 44c:	e51b2008 	ldr	r2, [fp, #-8]
 450:	e1520003 	cmp	r2, r3
 454:	8afffff3 	bhi	428 <itoa+0xf8>
 458:	e51b300c 	ldr	r3, [fp, #-12]
 45c:	e2832001 	add	r2, r3, #1
 460:	e50b200c 	str	r2, [fp, #-12]
 464:	e51b2008 	ldr	r2, [fp, #-8]
 468:	e5d22000 	ldrb	r2, [r2]
 46c:	e5c32000 	strb	r2, [r3]
 470:	e51b300c 	ldr	r3, [fp, #-12]
 474:	e2832001 	add	r2, r3, #1
 478:	e50b200c 	str	r2, [fp, #-12]
 47c:	e3a02000 	mov	r2, #0
 480:	e5c32000 	strb	r2, [r3]
 484:	ea000009 	b	4b0 <itoa+0x180>
 488:	e51b300c 	ldr	r3, [fp, #-12]
 48c:	e2832001 	add	r2, r3, #1
 490:	e50b200c 	str	r2, [fp, #-12]
 494:	e3a02030 	mov	r2, #48	; 0x30
 498:	e5c32000 	strb	r2, [r3]
 49c:	e51b300c 	ldr	r3, [fp, #-12]
 4a0:	e2832001 	add	r2, r3, #1
 4a4:	e50b200c 	str	r2, [fp, #-12]
 4a8:	e3a02000 	mov	r2, #0
 4ac:	e5c32000 	strb	r2, [r3]
 4b0:	e1a00000 	nop			; (mov r0, r0)
 4b4:	e24bd004 	sub	sp, fp, #4
 4b8:	e8bd4800 	pop	{fp, lr}
 4bc:	e12fff1e 	bx	lr

000004c0 <writeint>:
 4c0:	e92d4800 	push	{fp, lr}
 4c4:	e28db004 	add	fp, sp, #4
 4c8:	e24dd020 	sub	sp, sp, #32
 4cc:	e50b0020 	str	r0, [fp, #-32]	; 0xffffffe0
 4d0:	e24b3018 	sub	r3, fp, #24
 4d4:	e1a01003 	mov	r1, r3
 4d8:	e51b0020 	ldr	r0, [fp, #-32]	; 0xffffffe0
 4dc:	ebffff93 	bl	330 <itoa>
 4e0:	e24b3018 	sub	r3, fp, #24
 4e4:	e1a00003 	mov	r0, r3
 4e8:	ebffff15 	bl	144 <puts>
 4ec:	e1a00000 	nop			; (mov r0, r0)
 4f0:	e24bd004 	sub	sp, fp, #4
 4f4:	e8bd4800 	pop	{fp, lr}
 4f8:	e12fff1e 	bx	lr

000004fc <internal_putc>:
 4fc:	e92d0820 	push	{r5, fp}
 500:	e28db004 	add	fp, sp, #4
 504:	e24dd008 	sub	sp, sp, #8
 508:	e1a03000 	mov	r3, r0
 50c:	e54b3005 	strb	r3, [fp, #-5]
 510:	e3a01601 	mov	r1, #1048576	; 0x100000
 514:	e5c10000 	strb	r0, [r1]
 518:	e1a00000 	nop			; (mov r0, r0)
 51c:	e24bd004 	sub	sp, fp, #4
 520:	e8bd0820 	pop	{r5, fp}
 524:	e12fff1e 	bx	lr

00000528 <kbdinthandler>:
 528:	e92d4800 	push	{fp, lr}
 52c:	e28db004 	add	fp, sp, #4
 530:	e24dd008 	sub	sp, sp, #8
 534:	e59f30ac 	ldr	r3, [pc, #172]	; 5e8 <kbdinthandler+0xc0>
 538:	e50b300c 	str	r3, [fp, #-12]
 53c:	e59f30a8 	ldr	r3, [pc, #168]	; 5ec <kbdinthandler+0xc4>
 540:	e5933000 	ldr	r3, [r3]
 544:	e3530000 	cmp	r3, #0
 548:	0a000022 	beq	5d8 <kbdinthandler+0xb0>
 54c:	e59f309c 	ldr	r3, [pc, #156]	; 5f0 <kbdinthandler+0xc8>
 550:	e5933000 	ldr	r3, [r3]
 554:	e3530009 	cmp	r3, #9
 558:	8a00001e 	bhi	5d8 <kbdinthandler+0xb0>
 55c:	e59f3090 	ldr	r3, [pc, #144]	; 5f4 <kbdinthandler+0xcc>
 560:	e5932000 	ldr	r2, [r3]
 564:	e59f3084 	ldr	r3, [pc, #132]	; 5f0 <kbdinthandler+0xc8>
 568:	e5933000 	ldr	r3, [r3]
 56c:	e0823003 	add	r3, r2, r3
 570:	e50b3008 	str	r3, [fp, #-8]
 574:	e51b3008 	ldr	r3, [fp, #-8]
 578:	e3530009 	cmp	r3, #9
 57c:	9a000002 	bls	58c <kbdinthandler+0x64>
 580:	e51b3008 	ldr	r3, [fp, #-8]
 584:	e243300a 	sub	r3, r3, #10
 588:	e50b3008 	str	r3, [fp, #-8]
 58c:	e51b300c 	ldr	r3, [fp, #-12]
 590:	e5d31000 	ldrb	r1, [r3]
 594:	e59f205c 	ldr	r2, [pc, #92]	; 5f8 <kbdinthandler+0xd0>
 598:	e51b3008 	ldr	r3, [fp, #-8]
 59c:	e0823003 	add	r3, r2, r3
 5a0:	e1a02001 	mov	r2, r1
 5a4:	e5c32000 	strb	r2, [r3]
 5a8:	e59f2048 	ldr	r2, [pc, #72]	; 5f8 <kbdinthandler+0xd0>
 5ac:	e51b3008 	ldr	r3, [fp, #-8]
 5b0:	e0823003 	add	r3, r2, r3
 5b4:	e5d33000 	ldrb	r3, [r3]
 5b8:	e1a00003 	mov	r0, r3
 5bc:	ebffffce 	bl	4fc <internal_putc>
 5c0:	e59f3028 	ldr	r3, [pc, #40]	; 5f0 <kbdinthandler+0xc8>
 5c4:	e5933000 	ldr	r3, [r3]
 5c8:	e2833001 	add	r3, r3, #1
 5cc:	e59f201c 	ldr	r2, [pc, #28]	; 5f0 <kbdinthandler+0xc8>
 5d0:	e5823000 	str	r3, [r2]
 5d4:	ea000000 	b	5dc <kbdinthandler+0xb4>
 5d8:	e1a00000 	nop			; (mov r0, r0)
 5dc:	e24bd004 	sub	sp, fp, #4
 5e0:	e8bd4800 	pop	{fp, lr}
 5e4:	e12fff1e 	bx	lr
 5e8:	00100001 	.word	0x00100001
 5ec:	00000748 	.word	0x00000748
 5f0:	00000758 	.word	0x00000758
 5f4:	0000075c 	.word	0x0000075c
 5f8:	0000074c 	.word	0x0000074c

000005fc <internal_getchar>:
 5fc:	e92d0820 	push	{r5, fp}
 600:	e28db004 	add	fp, sp, #4
 604:	e24dd008 	sub	sp, sp, #8
 608:	e1a00000 	nop			; (mov r0, r0)
 60c:	e59f308c 	ldr	r3, [pc, #140]	; 6a0 <internal_getchar+0xa4>
 610:	e5933000 	ldr	r3, [r3]
 614:	e3530000 	cmp	r3, #0
 618:	0afffffb 	beq	60c <internal_getchar+0x10>
 61c:	e59f3080 	ldr	r3, [pc, #128]	; 6a4 <internal_getchar+0xa8>
 620:	e3a02000 	mov	r2, #0
 624:	e5832000 	str	r2, [r3]
 628:	e59f3078 	ldr	r3, [pc, #120]	; 6a8 <internal_getchar+0xac>
 62c:	e5933000 	ldr	r3, [r3]
 630:	e59f2074 	ldr	r2, [pc, #116]	; 6ac <internal_getchar+0xb0>
 634:	e7d23003 	ldrb	r3, [r2, r3]
 638:	e54b3005 	strb	r3, [fp, #-5]
 63c:	e59f3064 	ldr	r3, [pc, #100]	; 6a8 <internal_getchar+0xac>
 640:	e5933000 	ldr	r3, [r3]
 644:	e2833001 	add	r3, r3, #1
 648:	e59f2058 	ldr	r2, [pc, #88]	; 6a8 <internal_getchar+0xac>
 64c:	e5823000 	str	r3, [r2]
 650:	e59f3050 	ldr	r3, [pc, #80]	; 6a8 <internal_getchar+0xac>
 654:	e5933000 	ldr	r3, [r3]
 658:	e3530009 	cmp	r3, #9
 65c:	9a000002 	bls	66c <internal_getchar+0x70>
 660:	e59f3040 	ldr	r3, [pc, #64]	; 6a8 <internal_getchar+0xac>
 664:	e3a02000 	mov	r2, #0
 668:	e5832000 	str	r2, [r3]
 66c:	e59f302c 	ldr	r3, [pc, #44]	; 6a0 <internal_getchar+0xa4>
 670:	e5933000 	ldr	r3, [r3]
 674:	e2433001 	sub	r3, r3, #1
 678:	e59f2020 	ldr	r2, [pc, #32]	; 6a0 <internal_getchar+0xa4>
 67c:	e5823000 	str	r3, [r2]
 680:	e59f301c 	ldr	r3, [pc, #28]	; 6a4 <internal_getchar+0xa8>
 684:	e3a02001 	mov	r2, #1
 688:	e5832000 	str	r2, [r3]
 68c:	e55b3005 	ldrb	r3, [fp, #-5]
 690:	e1a00003 	mov	r0, r3
 694:	e24bd004 	sub	sp, fp, #4
 698:	e8bd0820 	pop	{r5, fp}
 69c:	e12fff1e 	bx	lr
 6a0:	00000758 	.word	0x00000758
 6a4:	00000748 	.word	0x00000748
 6a8:	0000075c 	.word	0x0000075c
 6ac:	0000074c 	.word	0x0000074c

000006b0 <swi_getline>:
 6b0:	e92d4800 	push	{fp, lr}
 6b4:	e28db004 	add	fp, sp, #4
 6b8:	e24dd010 	sub	sp, sp, #16
 6bc:	e50b0010 	str	r0, [fp, #-16]
 6c0:	e50b1014 	str	r1, [fp, #-20]	; 0xffffffec
 6c4:	e3a03000 	mov	r3, #0
 6c8:	e50b3008 	str	r3, [fp, #-8]
 6cc:	e3a03000 	mov	r3, #0
 6d0:	e54b3009 	strb	r3, [fp, #-9]
 6d4:	ea00000a 	b	704 <swi_getline+0x54>
 6d8:	ebffffc7 	bl	5fc <internal_getchar>
 6dc:	e1a03000 	mov	r3, r0
 6e0:	e54b3009 	strb	r3, [fp, #-9]
 6e4:	e51b2010 	ldr	r2, [fp, #-16]
 6e8:	e51b3008 	ldr	r3, [fp, #-8]
 6ec:	e0823003 	add	r3, r2, r3
 6f0:	e55b2009 	ldrb	r2, [fp, #-9]
 6f4:	e5c32000 	strb	r2, [r3]
 6f8:	e51b3008 	ldr	r3, [fp, #-8]
 6fc:	e2833001 	add	r3, r3, #1
 700:	e50b3008 	str	r3, [fp, #-8]
 704:	e51b3014 	ldr	r3, [fp, #-20]	; 0xffffffec
 708:	e2433001 	sub	r3, r3, #1
 70c:	e51b2008 	ldr	r2, [fp, #-8]
 710:	e1520003 	cmp	r2, r3
 714:	2a000002 	bcs	724 <swi_getline+0x74>
 718:	e55b3009 	ldrb	r3, [fp, #-9]
 71c:	e353000d 	cmp	r3, #13
 720:	1affffec 	bne	6d8 <swi_getline+0x28>
 724:	e51b2010 	ldr	r2, [fp, #-16]
 728:	e51b3008 	ldr	r3, [fp, #-8]
 72c:	e0823003 	add	r3, r2, r3
 730:	e3a02000 	mov	r2, #0
 734:	e5c32000 	strb	r2, [r3]
 738:	e1a00000 	nop			; (mov r0, r0)
 73c:	e24bd004 	sub	sp, fp, #4
 740:	e8bd4800 	pop	{fp, lr}
 744:	e12fff1e 	bx	lr

00000748 <kbd_enabled>:
 748:	00000001                                ....

Disassembly of section .text:

00002000 <main>:
    2000:	e92d4800 	push	{fp, lr}
    2004:	e28db004 	add	fp, sp, #4
    2008:	e24dd008 	sub	sp, sp, #8
    200c:	e3a03000 	mov	r3, #0
    2010:	e50b3008 	str	r3, [fp, #-8]
    2014:	e59f004c 	ldr	r0, [pc, #76]	; 2068 <main+0x68>
    2018:	ebfff849 	bl	144 <puts>
    201c:	ebfff85b 	bl	190 <readint>
    2020:	e50b0008 	str	r0, [fp, #-8]
    2024:	ea000006 	b	2044 <main+0x44>
    2028:	e51b0008 	ldr	r0, [fp, #-8]
    202c:	ebfff923 	bl	4c0 <writeint>
    2030:	e59f0034 	ldr	r0, [pc, #52]	; 206c <main+0x6c>
    2034:	ebfff842 	bl	144 <puts>
    2038:	e51b3008 	ldr	r3, [fp, #-8]
    203c:	e2433001 	sub	r3, r3, #1
    2040:	e50b3008 	str	r3, [fp, #-8]
    2044:	e51b3008 	ldr	r3, [fp, #-8]
    2048:	e3530000 	cmp	r3, #0
    204c:	cafffff5 	bgt	2028 <main+0x28>
    2050:	ef000011 	svc	0x00000011
    2054:	e3a03000 	mov	r3, #0
    2058:	e1a00003 	mov	r0, r3
    205c:	e24bd004 	sub	sp, fp, #4
    2060:	e8bd4800 	pop	{fp, lr}
    2064:	e12fff1e 	bx	lr
    2068:	00002070 	.word	0x00002070
    206c:	0000208c 	.word	0x0000208c
    2070:	65746e45 	.word	0x65746e45
    2074:	20612072 	.word	0x20612072
    2078:	72617473 	.word	0x72617473
    207c:	676e6974 	.word	0x676e6974
    2080:	6d756e20 	.word	0x6d756e20
    2084:	3a726562 	.word	0x3a726562
    2088:	00000000 	.word	0x00000000
    208c:	0a2e2e2e 	.word	0x0a2e2e2e
	...
