
quicksort_no_io.exe:     file format elf32-littlearm


Disassembly of section .text:

00001000 <quicksort>:
    1000:	e92d4800 	push	{fp, lr}
    1004:	e28db004 	add	fp, sp, #4
    1008:	e24dd018 	sub	sp, sp, #24
    100c:	e50b0018 	str	r0, [fp, #-24]	; 0xffffffe8
    1010:	e50b101c 	str	r1, [fp, #-28]	; 0xffffffe4
    1014:	e51b301c 	ldr	r3, [fp, #-28]	; 0xffffffe4
    1018:	e3530001 	cmp	r3, #1
    101c:	da00005e 	ble	119c <quicksort+0x19c>
    1020:	e51b3018 	ldr	r3, [fp, #-24]	; 0xffffffe8
    1024:	e5933000 	ldr	r3, [r3]
    1028:	e50b3010 	str	r3, [fp, #-16]
    102c:	e3a03000 	mov	r3, #0
    1030:	e50b3008 	str	r3, [fp, #-8]
    1034:	e51b301c 	ldr	r3, [fp, #-28]	; 0xffffffe4
    1038:	e50b300c 	str	r3, [fp, #-12]
    103c:	e1a00000 	nop			; (mov r0, r0)
    1040:	e51b3008 	ldr	r3, [fp, #-8]
    1044:	e2833001 	add	r3, r3, #1
    1048:	e50b3008 	str	r3, [fp, #-8]
    104c:	e51b3008 	ldr	r3, [fp, #-8]
    1050:	e1a03103 	lsl	r3, r3, #2
    1054:	e51b2018 	ldr	r2, [fp, #-24]	; 0xffffffe8
    1058:	e0823003 	add	r3, r2, r3
    105c:	e5933000 	ldr	r3, [r3]
    1060:	e51b2010 	ldr	r2, [fp, #-16]
    1064:	e1520003 	cmp	r2, r3
    1068:	da000003 	ble	107c <quicksort+0x7c>
    106c:	e51b2008 	ldr	r2, [fp, #-8]
    1070:	e51b301c 	ldr	r3, [fp, #-28]	; 0xffffffe4
    1074:	e1520003 	cmp	r2, r3
    1078:	bafffff0 	blt	1040 <quicksort+0x40>
    107c:	e51b300c 	ldr	r3, [fp, #-12]
    1080:	e2433001 	sub	r3, r3, #1
    1084:	e50b300c 	str	r3, [fp, #-12]
    1088:	e51b300c 	ldr	r3, [fp, #-12]
    108c:	e1a03103 	lsl	r3, r3, #2
    1090:	e51b2018 	ldr	r2, [fp, #-24]	; 0xffffffe8
    1094:	e0823003 	add	r3, r2, r3
    1098:	e5933000 	ldr	r3, [r3]
    109c:	e51b2010 	ldr	r2, [fp, #-16]
    10a0:	e1520003 	cmp	r2, r3
    10a4:	bafffff4 	blt	107c <quicksort+0x7c>
    10a8:	e51b2008 	ldr	r2, [fp, #-8]
    10ac:	e51b300c 	ldr	r3, [fp, #-12]
    10b0:	e1520003 	cmp	r2, r3
    10b4:	aa000016 	bge	1114 <quicksort+0x114>
    10b8:	e51b3008 	ldr	r3, [fp, #-8]
    10bc:	e1a03103 	lsl	r3, r3, #2
    10c0:	e51b2018 	ldr	r2, [fp, #-24]	; 0xffffffe8
    10c4:	e0823003 	add	r3, r2, r3
    10c8:	e5933000 	ldr	r3, [r3]
    10cc:	e50b3014 	str	r3, [fp, #-20]	; 0xffffffec
    10d0:	e51b300c 	ldr	r3, [fp, #-12]
    10d4:	e1a03103 	lsl	r3, r3, #2
    10d8:	e51b2018 	ldr	r2, [fp, #-24]	; 0xffffffe8
    10dc:	e0822003 	add	r2, r2, r3
    10e0:	e51b3008 	ldr	r3, [fp, #-8]
    10e4:	e1a03103 	lsl	r3, r3, #2
    10e8:	e51b1018 	ldr	r1, [fp, #-24]	; 0xffffffe8
    10ec:	e0813003 	add	r3, r1, r3
    10f0:	e5922000 	ldr	r2, [r2]
    10f4:	e5832000 	str	r2, [r3]
    10f8:	e51b300c 	ldr	r3, [fp, #-12]
    10fc:	e1a03103 	lsl	r3, r3, #2
    1100:	e51b2018 	ldr	r2, [fp, #-24]	; 0xffffffe8
    1104:	e0823003 	add	r3, r2, r3
    1108:	e51b2014 	ldr	r2, [fp, #-20]	; 0xffffffec
    110c:	e5832000 	str	r2, [r3]
    1110:	eaffffca 	b	1040 <quicksort+0x40>
    1114:	e1a00000 	nop			; (mov r0, r0)
    1118:	e51b3008 	ldr	r3, [fp, #-8]
    111c:	e2433107 	sub	r3, r3, #-1073741823	; 0xc0000001
    1120:	e1a03103 	lsl	r3, r3, #2
    1124:	e51b2018 	ldr	r2, [fp, #-24]	; 0xffffffe8
    1128:	e0823003 	add	r3, r2, r3
    112c:	e5933000 	ldr	r3, [r3]
    1130:	e50b3014 	str	r3, [fp, #-20]	; 0xffffffec
    1134:	e51b3008 	ldr	r3, [fp, #-8]
    1138:	e2433107 	sub	r3, r3, #-1073741823	; 0xc0000001
    113c:	e1a03103 	lsl	r3, r3, #2
    1140:	e51b2018 	ldr	r2, [fp, #-24]	; 0xffffffe8
    1144:	e0823003 	add	r3, r2, r3
    1148:	e51b2018 	ldr	r2, [fp, #-24]	; 0xffffffe8
    114c:	e5922000 	ldr	r2, [r2]
    1150:	e5832000 	str	r2, [r3]
    1154:	e51b3018 	ldr	r3, [fp, #-24]	; 0xffffffe8
    1158:	e51b2014 	ldr	r2, [fp, #-20]	; 0xffffffec
    115c:	e5832000 	str	r2, [r3]
    1160:	e51b3008 	ldr	r3, [fp, #-8]
    1164:	e2433001 	sub	r3, r3, #1
    1168:	e1a01003 	mov	r1, r3
    116c:	e51b0018 	ldr	r0, [fp, #-24]	; 0xffffffe8
    1170:	ebffffa2 	bl	1000 <quicksort>
    1174:	e51b3008 	ldr	r3, [fp, #-8]
    1178:	e1a03103 	lsl	r3, r3, #2
    117c:	e51b2018 	ldr	r2, [fp, #-24]	; 0xffffffe8
    1180:	e0820003 	add	r0, r2, r3
    1184:	e51b201c 	ldr	r2, [fp, #-28]	; 0xffffffe4
    1188:	e51b3008 	ldr	r3, [fp, #-8]
    118c:	e0423003 	sub	r3, r2, r3
    1190:	e1a01003 	mov	r1, r3
    1194:	ebffff99 	bl	1000 <quicksort>
    1198:	ea000000 	b	11a0 <quicksort+0x1a0>
    119c:	e1a00000 	nop			; (mov r0, r0)
    11a0:	e24bd004 	sub	sp, fp, #4
    11a4:	e8bd4800 	pop	{fp, lr}
    11a8:	e12fff1e 	bx	lr

000011ac <main>:
    11ac:	e92d4800 	push	{fp, lr}
    11b0:	e28db004 	add	fp, sp, #4
    11b4:	e3a01007 	mov	r1, #7
    11b8:	e59f0018 	ldr	r0, [pc, #24]	; 11d8 <main+0x2c>
    11bc:	ebffff8f 	bl	1000 <quicksort>
    11c0:	ef000011 	svc	0x00000011
    11c4:	e3a03000 	mov	r3, #0
    11c8:	e1a00003 	mov	r0, r3
    11cc:	e24bd004 	sub	sp, fp, #4
    11d0:	e8bd4800 	pop	{fp, lr}
    11d4:	e12fff1e 	bx	lr
    11d8:	000011dc 	.word	0x000011dc

000011dc <nums>:
    11dc:	000000c8 fffffff1 0000001e 0000002d     ............-...
    11ec:	00000066 fffffffe 00000013              f...........
